target datalayout = "e-m:e-p270:32:32-p271:32:32-p272:64:64-i64:64-i128:128-f80:128-n8:16:32:64-S128"
target triple = "x86_64-pc-linux-gnu"

%struct.GenContext_ = type { i8, ptr, ptr, ptr, ptr, ptr, ptr, ptr, ptr, ptr, ptr, ptr, ptr, ptr, ptr, ptr, ptr, ptr, ptr, ptr, ptr, ptr, ptr, ptr, ptr, ptr, ptr, ptr, ptr, ptr, ptr, ptr, ptr, %struct.anon.85, i32, i32, %struct.DebugContext, ptr, ptr, ptr, %struct.BEValue, i8, %union.SourceSpan, ptr, ptr, ptr, ptr }
%struct.anon.85 = type { ptr, ptr, ptr }
%struct.DebugContext = type { i16, ptr, ptr, %struct.DebugFile_, ptr, ptr, ptr, ptr }
%struct.DebugFile_ = type { i16, ptr }
%struct.BEValue = type { i8, i32, ptr, ptr, ptr }
%union.SourceSpan = type { i64 }
%struct.VHeader_ = type { i32, i32, [0 x i8] }

; Function Attrs: nounwind uwtable
define internal void @vec_pop(ptr noundef %0) #0 {
  %2 = alloca ptr, align 8
  %3 = alloca ptr, align 8
  store ptr %0, ptr %2, align 8
  %4 = load ptr, ptr %2, align 8
  store ptr %4, ptr %3, align 8
  %5 = load ptr, ptr %3, align 8
  %6 = getelementptr inbounds %struct.VHeader_, ptr %5, i64 -1
  %7 = getelementptr inbounds %struct.VHeader_, ptr %6, i32 0, i32 0
  %8 = load i32, ptr %7, align 4
  %9 = add i32 %8, -1
  store i32 %9, ptr %7, align 4
  ret void
}

; Function Attrs: nounwind uwtable
define dso_local void @llvm_debug_scope_pop(ptr noundef %0) #0 {
  %2 = alloca ptr, align 8
  store ptr %0, ptr %2, align 8
  %3 = load ptr, ptr %2, align 8
  %4 = getelementptr inbounds %struct.GenContext_, ptr %3, i32 0, i32 36
  %5 = getelementptr inbounds %struct.DebugContext, ptr %4, i32 0, i32 6
  %6 = load ptr, ptr %5, align 8
  call void @vec_pop(ptr noundef %6)
  ret void
}